target datalayout = "e-m:e-p270:32:32-p271:32:32-p272:64:64-i64:64-i128:128-f80:128-n8:16:32:64-S128"
target triple = "x86_64-pc-linux-gnu"

@hf_logcat_text_pid = internal global i32 0, align 4

; Function Attrs: null_pointer_is_valid sspstrong uwtable
define internal i32 @get_ptid(ptr noundef %0, ptr noundef %1, ptr noundef %2, ptr noundef %3, i32 noundef %4, i32 noundef %5) #0 {
  %7 = alloca ptr, align 8
  %8 = alloca ptr, align 8
  %9 = alloca ptr, align 8
  %10 = alloca ptr, align 8
  %11 = alloca i32, align 4
  %12 = alloca i32, align 4
  %13 = alloca ptr, align 8
  %14 = alloca i32, align 4
  store ptr %0, ptr %7, align 8
  store ptr %1, ptr %8, align 8
  store ptr %2, ptr %9, align 8
  store ptr %3, ptr %10, align 8
  store i32 %4, ptr %11, align 4
  store i32 %5, ptr %12, align 4
  call void @llvm.lifetime.start.p0(i64 8, ptr %13) #7
  %15 = load ptr, ptr %7, align 8
  %16 = load i32, ptr %12, align 4
  %17 = sext i32 %16 to i64
  %18 = getelementptr i8, ptr %15, i64 %17
  %19 = load ptr, ptr %8, align 8
  %20 = call ptr @g_strstr_len(ptr noundef %18, i64 noundef -1, ptr noundef %19)
  store ptr %20, ptr %13, align 8
  call void @llvm.lifetime.start.p0(i64 4, ptr %14) #7
  %21 = load ptr, ptr %13, align 8
  %22 = load ptr, ptr %7, align 8
  %23 = ptrtoint ptr %21 to i64
  %24 = ptrtoint ptr %22 to i64
  %25 = sub i64 %23, %24
  %26 = trunc i64 %25 to i32
  store i32 %26, ptr %14, align 4
  %27 = load ptr, ptr %10, align 8
  %28 = load i32, ptr %11, align 4
  %29 = load ptr, ptr %9, align 8
  %30 = load i32, ptr %14, align 4
  %31 = load ptr, ptr %8, align 8
  %32 = call i64 @strlen(ptr noundef %31) #8
  %33 = trunc i64 %32 to i32
  %34 = load ptr, ptr %8, align 8
  %35 = call i64 @g_ascii_strtoull(ptr noundef %34, ptr noundef null, i32 noundef 10)
  %36 = trunc i64 %35 to i32
  %37 = call ptr @proto_tree_add_uint(ptr noundef %27, i32 noundef %28, ptr noundef %29, i32 noundef %30, i32 noundef %33, i32 noundef %36)
  %38 = load i32, ptr %14, align 4
  %39 = load ptr, ptr %8, align 8
  %40 = call i64 @strlen(ptr noundef %39) #8
  %41 = trunc i64 %40 to i32
  %42 = add i32 %38, %41
  call void @llvm.lifetime.end.p0(i64 4, ptr %14) #7
  call void @llvm.lifetime.end.p0(i64 8, ptr %13) #7
  ret i32 %42
}

; Function Attrs: null_pointer_is_valid sspstrong uwtable
define internal i32 @get_pid(ptr noundef %0, ptr noundef %1, ptr noundef %2, ptr noundef %3, i32 noundef %4, ptr noundef %5) #0 {
  %7 = alloca ptr, align 8
  %8 = alloca ptr, align 8
  %9 = alloca ptr, align 8
  %10 = alloca ptr, align 8
  %11 = alloca i32, align 4
  %12 = alloca ptr, align 8
  store ptr %0, ptr %7, align 8
  store ptr %1, ptr %8, align 8
  store ptr %2, ptr %9, align 8
  store ptr %3, ptr %10, align 8
  store i32 %4, ptr %11, align 4
  store ptr %5, ptr %12, align 8
  %13 = load ptr, ptr %7, align 8
  %14 = load ptr, ptr %8, align 8
  %15 = load ptr, ptr %9, align 8
  %16 = load ptr, ptr %10, align 8
  %17 = load i32, ptr @hf_logcat_text_pid, align 4
  %18 = load i32, ptr %11, align 4
  %19 = call i32 @get_ptid(ptr noundef %13, ptr noundef %14, ptr noundef %15, ptr noundef %16, i32 noundef %17, i32 noundef %18)
  ret i32 %19
}