; Function Attrs: null_pointer_is_valid sspstrong uwtable
define internal i32 @get_pid(ptr noundef %0, ptr noundef %1, ptr noundef %2, ptr noundef %3, i32 noundef %4, ptr readnone captures(none) %5) #0 {
  %7 = load i32, ptr @hf_logcat_text_pid, align 4
  %8 = sext i32 %4 to i64
  %9 = getelementptr i8, ptr %0, i64 %8
  %10 = tail call ptr @g_strstr_len(ptr noundef %9, i64 noundef -1, ptr noundef %1)
  %11 = ptrtoint ptr %10 to i64
  %12 = ptrtoint ptr %0 to i64
  %13 = sub i64 %11, %12
  %14 = trunc i64 %13 to i32
  %15 = tail call i64 @strlen(ptr noundef %1) #6
  %16 = trunc i64 %15 to i32
  %17 = tail call i64 @g_ascii_strtoull(ptr noundef %1, ptr noundef null, i32 noundef 10)
  %18 = trunc i64 %17 to i32
  %19 = tail call ptr @proto_tree_add_uint(ptr noundef %3, i32 noundef %7, ptr noundef %2, i32 noundef %14, i32 noundef %16, i32 noundef %18)
  %20 = tail call i64 @strlen(ptr noundef %1) #6
  %21 = trunc i64 %20 to i32
  %22 = add i32 %21, %14
  ret i32 %22
}